; Function Attrs: mustprogress nounwind uwtable
define hidden void @_ZN22ciTypeStackSlotEntries24translate_type_data_fromEPK20TypeStackSlotEntries(ptr nocapture noundef nonnull readonly align 8 dereferenceable(16) %0, ptr nocapture noundef readonly %1) local_unnamed_addr #1 align 2 {
  %3 = getelementptr inbounds i8, ptr %0, i64 12
  %4 = load i32, ptr %3, align 4
  %5 = icmp sgt i32 %4, 0
  br i1 %5, label %.lr.ph, label %._crit_edge

.lr.ph:                                           ; preds = %2
  %6 = getelementptr inbounds i8, ptr %1, i64 8
  %7 = getelementptr inbounds i8, ptr %0, i64 8
  %8 = tail call align 8 ptr @llvm.threadlocal.address.p0(ptr align 8 @_ZN6Thread12_thr_currentE)
  br label %9

9:                                                ; preds = %.lr.ph, %_ZN13ciTypeEntries15translate_klassEl.exit
  %.013 = phi i32 [ 0, %.lr.ph ], [ %49, %_ZN13ciTypeEntries15translate_klassEl.exit ]
  %10 = load ptr, ptr %1, align 8
  %11 = load i32, ptr %6, align 8
  %12 = shl nuw nsw i32 %.013, 1
  %13 = or disjoint i32 %12, 1
  %14 = add nsw i32 %11, %13
  %15 = getelementptr inbounds i8, ptr %10, i64 8
  %16 = load ptr, ptr %15, align 8
  %17 = getelementptr inbounds i8, ptr %16, i64 8
  %18 = sext i32 %14 to i64
  %19 = getelementptr inbounds [1 x i64], ptr %17, i64 0, i64 %18
  %20 = load i64, ptr %19, align 8
  %21 = and i64 %20, -4
  %.not = icmp eq i64 %21, 0
  br i1 %.not, label %.thread, label %22

22:                                               ; preds = %9
  %23 = inttoptr i64 %21 to ptr
  %24 = getelementptr inbounds i8, ptr %23, i64 152
  %25 = load ptr, ptr %24, align 8
  %26 = tail call noundef zeroext i1 @_ZNK15ClassLoaderData8is_aliveEv(ptr noundef nonnull align 8 dereferenceable(160) %25) #12
  br i1 %26, label %29, label %27

27:                                               ; preds = %22
  %28 = and i64 %20, 3
  br label %_ZN13ciTypeEntries15translate_klassEl.exit

29:                                               ; preds = %22
  %30 = and i64 %20, 2
  %.not14 = icmp eq i64 %30, 0
  br i1 %.not14, label %_ZN5ciEnv9get_klassEP5Klass.exit.i, label %.thread

_ZN5ciEnv9get_klassEP5Klass.exit.i:               ; preds = %29
  %31 = load ptr, ptr %8, align 8
  %32 = getelementptr inbounds i8, ptr %31, i64 1808
  %33 = load ptr, ptr %32, align 8
  %34 = getelementptr inbounds i8, ptr %33, i64 56
  %35 = load ptr, ptr %34, align 8
  %36 = tail call noundef ptr @_ZN15ciObjectFactory12get_metadataEP8Metadata(ptr noundef nonnull align 8 dereferenceable(652) %35, ptr noundef nonnull %23) #12
  %37 = ptrtoint ptr %36 to i64
  %38 = and i64 %20, 1
  %39 = or i64 %38, %37
  br label %_ZN13ciTypeEntries15translate_klassEl.exit

.thread:                                          ; preds = %9, %29
  %40 = and i64 %20, 3
  br label %_ZN13ciTypeEntries15translate_klassEl.exit

_ZN13ciTypeEntries15translate_klassEl.exit:       ; preds = %.thread, %_ZN5ciEnv9get_klassEP5Klass.exit.i, %27
  %.sink = phi i64 [ %28, %27 ], [ %39, %_ZN5ciEnv9get_klassEP5Klass.exit.i ], [ %40, %.thread ]
  %41 = load ptr, ptr %0, align 8
  %42 = load i32, ptr %7, align 8
  %43 = add nsw i32 %42, %13
  %44 = getelementptr inbounds i8, ptr %41, i64 8
  %45 = load ptr, ptr %44, align 8
  %46 = getelementptr inbounds i8, ptr %45, i64 8
  %47 = sext i32 %43 to i64
  %48 = getelementptr inbounds [1 x i64], ptr %46, i64 0, i64 %47
  store i64 %.sink, ptr %48, align 8
  %49 = add nuw nsw i32 %.013, 1
  %50 = load i32, ptr %3, align 4
  %51 = icmp slt i32 %49, %50
  br i1 %51, label %9, label %._crit_edge, !llvm.loop !12

._crit_edge:                                      ; preds = %_ZN13ciTypeEntries15translate_klassEl.exit, %2
  ret void
}